target datalayout = "e-m:e-p270:32:32-p271:32:32-p272:64:64-i64:64-i128:128-f80:128-n8:16:32:64-S128"
target triple = "x86_64-pc-linux-gnu"

; Function Attrs: nounwind uwtable
define internal i32 @compareDoubles(ptr noundef %0, ptr noundef %1) #0 {
  %3 = alloca i32, align 4
  %4 = alloca ptr, align 8
  %5 = alloca ptr, align 8
  %6 = alloca double, align 8
  %7 = alloca double, align 8
  %8 = alloca i32, align 4
  store ptr %0, ptr %4, align 8
  store ptr %1, ptr %5, align 8
  call void @llvm.lifetime.start.p0(i64 8, ptr %6) #6
  %9 = load ptr, ptr %4, align 8
  %10 = load double, ptr %9, align 8
  store double %10, ptr %6, align 8
  call void @llvm.lifetime.start.p0(i64 8, ptr %7) #6
  %11 = load ptr, ptr %5, align 8
  %12 = load double, ptr %11, align 8
  store double %12, ptr %7, align 8
  %13 = load double, ptr %6, align 8
  %14 = load double, ptr %7, align 8
  %15 = fcmp oeq double %13, %14
  br i1 %15, label %16, label %17

16:                                               ; preds = %2
  store i32 0, ptr %3, align 4
  store i32 1, ptr %8, align 4
  br label %22

17:                                               ; preds = %2
  %18 = load double, ptr %6, align 8
  %19 = load double, ptr %7, align 8
  %20 = fcmp ogt double %18, %19
  %21 = select i1 %20, i32 1, i32 -1
  store i32 %21, ptr %3, align 4
  store i32 1, ptr %8, align 4
  br label %22

22:                                               ; preds = %17, %16
  call void @llvm.lifetime.end.p0(i64 8, ptr %7) #6
  call void @llvm.lifetime.end.p0(i64 8, ptr %6) #6
  %23 = load i32, ptr %3, align 4
  ret i32 %23
}