; Function Attrs: mustprogress nofree norecurse nosync nounwind willreturn memory(argmem: read) uwtable
define internal range(i32 -1, 2) i32 @compareDoubles(ptr noundef readonly captures(none) %0, ptr noundef readonly captures(none) %1) #4 {
  %3 = load double, ptr %0, align 8
  %4 = load double, ptr %1, align 8
  %5 = fcmp oeq double %3, %4
  %6 = fcmp ogt double %3, %4
  %7 = select i1 %6, i32 1, i32 -1
  %.0 = select i1 %5, i32 0, i32 %7
  ret i32 %.0
}